; Function Attrs: mustprogress nounwind uwtable
define hidden { ptr, i32 } @_ZN4llvm16DAGTypeLegalizer19SoftenFloatRes_FPOWEPNS_6SDNodeE(ptr noundef nonnull align 8 dereferenceable(2512) %0, ptr noundef %1) local_unnamed_addr #0 align 2 {
_ZL12GetFPLibCallN4llvm3EVTENS_5RTLIB7LibcallES2_S2_S2_S2_.exit:
  %2 = getelementptr inbounds nuw i8, ptr %1, i64 48
  %3 = load ptr, ptr %2, align 8
  %.sroa.0.0.copyload.i = load i16, ptr %3, align 8
  %switch.tableidx = add i16 %.sroa.0.0.copyload.i, -12
  %4 = icmp ult i16 %switch.tableidx, 5
  %switch.idx.cast = zext i16 %switch.tableidx to i32
  %switch.offset = add nuw nsw i32 %switch.idx.cast, 207
  %5 = select i1 %4, i32 %switch.offset, i32 700
  %6 = tail call { ptr, i32 } @_ZN4llvm16DAGTypeLegalizer21SoftenFloatRes_BinaryEPNS_6SDNodeENS_5RTLIB7LibcallE(ptr noundef nonnull align 8 dereferenceable(2512) %0, ptr noundef nonnull %1, i32 noundef %5)
  ret { ptr, i32 } %6
}